target datalayout = "e-m:e-p270:32:32-p271:32:32-p272:64:64-i64:64-i128:128-f80:128-n8:16:32:64-S128"
target triple = "x86_64-pc-linux-gnu"

%struct.sec_opts_s = type { i64, i64, i64, i64, i64 }
%struct.sec_s = type { %struct.pai_s, ptr, %struct.sec_opts_s, ptr, i32 }
%struct.pai_s = type { ptr, ptr, ptr, ptr, ptr, ptr, ptr }
%struct.sec_shard_s = type { %struct.malloc_mutex_s, i8, ptr, i64, i32 }
%struct.malloc_mutex_s = type { %union.anon }
%union.anon = type { %struct.anon }
%struct.anon = type { %struct.mutex_prof_data_t, %union.pthread_mutex_t, %struct.atomic_b_t }
%struct.mutex_prof_data_t = type { %struct.nstime_t, %struct.nstime_t, i64, i64, i32, %struct.atomic_u32_t, i64, ptr, i64 }
%struct.nstime_t = type { i64 }
%struct.atomic_u32_t = type { i32 }
%union.pthread_mutex_t = type { %struct.__pthread_mutex_s }
%struct.__pthread_mutex_s = type { i32, i32, i32, i32, i32, i16, i16, %struct.__pthread_internal_list }
%struct.__pthread_internal_list = type { ptr, ptr }
%struct.atomic_b_t = type { i8 }

; Function Attrs: nounwind uwtable
define hidden void @je_sec_prefork2(ptr noundef %0, ptr noundef %1) #0 {
  %3 = alloca ptr, align 8
  %4 = alloca ptr, align 8
  %5 = alloca i64, align 8
  store ptr %0, ptr %3, align 8, !tbaa !4
  store ptr %1, ptr %4, align 8, !tbaa !9
  call void @llvm.lifetime.start.p0(i64 8, ptr %5) #9
  store i64 0, ptr %5, align 8, !tbaa !20
  br label %6

6:                                                ; preds = %22, %2
  %7 = load i64, ptr %5, align 8, !tbaa !20
  %8 = load ptr, ptr %4, align 8, !tbaa !9
  %9 = getelementptr inbounds nuw %struct.sec_s, ptr %8, i32 0, i32 2
  %10 = getelementptr inbounds nuw %struct.sec_opts_s, ptr %9, i32 0, i32 0
  %11 = load i64, ptr %10, align 8, !tbaa !62
  %12 = icmp ult i64 %7, %11
  br i1 %12, label %14, label %13

13:                                               ; preds = %6
  call void @llvm.lifetime.end.p0(i64 8, ptr %5) #9
  br label %25

14:                                               ; preds = %6
  %15 = load ptr, ptr %3, align 8, !tbaa !4
  %16 = load ptr, ptr %4, align 8, !tbaa !9
  %17 = getelementptr inbounds nuw %struct.sec_s, ptr %16, i32 0, i32 3
  %18 = load ptr, ptr %17, align 8, !tbaa !27
  %19 = load i64, ptr %5, align 8, !tbaa !20
  %20 = getelementptr inbounds nuw %struct.sec_shard_s, ptr %18, i64 %19
  %21 = getelementptr inbounds nuw %struct.sec_shard_s, ptr %20, i32 0, i32 0
  call void @je_malloc_mutex_prefork(ptr noundef %15, ptr noundef %21)
  br label %22

22:                                               ; preds = %14
  %23 = load i64, ptr %5, align 8, !tbaa !20
  %24 = add i64 %23, 1
  store i64 %24, ptr %5, align 8, !tbaa !20
  br label %6, !llvm.loop !85

25:                                               ; preds = %13
  ret void
}